; ModuleID = '37/1710.c'
source_filename = "37/1710.c"
target datalayout = "e-m:e-p270:32:32-p271:32:32-p272:64:64-i64:64-f80:128-n8:16:32:64-S128"
target triple = "x86_64-pc-linux-gnu"

@.str = private unnamed_addr constant [3 x i8] c"%d\00", align 1
@.str.1 = private unnamed_addr constant [3 x i8] c"%s\00", align 1
@.str.2 = private unnamed_addr constant [4 x i8] c"no\0A\00", align 1
@.str.3 = private unnamed_addr constant [4 x i8] c"%c\0A\00", align 1

; Function Attrs: noinline nounwind uwtable
define dso_local i32 @main() #0 {
  %1 = alloca i32, align 4
  %2 = alloca [100001 x i8], align 16
  %3 = alloca i32, align 4
  %4 = alloca i32, align 4
  %5 = alloca i32, align 4
  %6 = alloca i32, align 4
  %7 = alloca [100001 x i32], align 16
  %8 = alloca i32, align 4
  %9 = alloca i32, align 4
  %10 = alloca i32, align 4
  store i32 0, i32* %1, align 4
  %11 = bitcast [100001 x i32]* %7 to i8*
  call void @llvm.memset.p0i8.i64(i8* align 16 %11, i8 0, i64 400004, i1 false)
  store i32 100002, i32* %8, align 4
  %12 = call i32 (i8*, ...) @__isoc99_scanf(i8* getelementptr inbounds ([3 x i8], [3 x i8]* @.str, i64 0, i64 0), i32* %3)
  store i32 1, i32* %10, align 4
  br label %13

13:                                               ; preds = %99, %0
  %14 = load i32, i32* %10, align 4
  %15 = load i32, i32* %3, align 4
  %16 = icmp sle i32 %14, %15
  br i1 %16, label %17, label %102

17:                                               ; preds = %13
  %18 = getelementptr inbounds [100001 x i8], [100001 x i8]* %2, i64 0, i64 0
  %19 = call i32 (i8*, ...) @__isoc99_scanf(i8* getelementptr inbounds ([3 x i8], [3 x i8]* @.str.1, i64 0, i64 0), i8* %18)
  %20 = getelementptr inbounds [100001 x i8], [100001 x i8]* %2, i64 0, i64 0
  %21 = call i64 @strlen(i8* %20) #4
  %22 = trunc i64 %21 to i32
  store i32 %22, i32* %9, align 4
  store i32 0, i32* %5, align 4
  br label %23

23:                                               ; preds = %55, %17
  %24 = load i32, i32* %5, align 4
  %25 = load i32, i32* %9, align 4
  %26 = icmp slt i32 %24, %25
  br i1 %26, label %27, label %58

27:                                               ; preds = %23
  store i32 0, i32* %6, align 4
  br label %28

28:                                               ; preds = %51, %27
  %29 = load i32, i32* %6, align 4
  %30 = load i32, i32* %9, align 4
  %31 = icmp slt i32 %29, %30
  br i1 %31, label %32, label %54

32:                                               ; preds = %28
  %33 = load i32, i32* %6, align 4
  %34 = sext i32 %33 to i64
  %35 = getelementptr inbounds [100001 x i8], [100001 x i8]* %2, i64 0, i64 %34
  %36 = load i8, i8* %35, align 1
  %37 = sext i8 %36 to i32
  %38 = load i32, i32* %5, align 4
  %39 = sext i32 %38 to i64
  %40 = getelementptr inbounds [100001 x i8], [100001 x i8]* %2, i64 0, i64 %39
  %41 = load i8, i8* %40, align 1
  %42 = sext i8 %41 to i32
  %43 = icmp eq i32 %37, %42
  br i1 %43, label %44, label %50

44:                                               ; preds = %32
  %45 = load i32, i32* %5, align 4
  %46 = sext i32 %45 to i64
  %47 = getelementptr inbounds [100001 x i32], [100001 x i32]* %7, i64 0, i64 %46
  %48 = load i32, i32* %47, align 4
  %49 = add nsw i32 %48, 1
  store i32 %49, i32* %47, align 4
  br label %50

50:                                               ; preds = %44, %32
  br label %51

51:                                               ; preds = %50
  %52 = load i32, i32* %6, align 4
  %53 = add nsw i32 %52, 1
  store i32 %53, i32* %6, align 4
  br label %28

54:                                               ; preds = %28
  br label %55

55:                                               ; preds = %54
  %56 = load i32, i32* %5, align 4
  %57 = add nsw i32 %56, 1
  store i32 %57, i32* %5, align 4
  br label %23

58:                                               ; preds = %23
  store i32 0, i32* %4, align 4
  br label %59

59:                                               ; preds = %72, %58
  %60 = load i32, i32* %4, align 4
  %61 = load i32, i32* %9, align 4
  %62 = icmp slt i32 %60, %61
  br i1 %62, label %63, label %75

63:                                               ; preds = %59
  %64 = load i32, i32* %4, align 4
  %65 = sext i32 %64 to i64
  %66 = getelementptr inbounds [100001 x i32], [100001 x i32]* %7, i64 0, i64 %65
  %67 = load i32, i32* %66, align 4
  %68 = icmp eq i32 %67, 1
  br i1 %68, label %69, label %71

69:                                               ; preds = %63
  %70 = load i32, i32* %4, align 4
  store i32 %70, i32* %8, align 4
  br label %75

71:                                               ; preds = %63
  br label %72

72:                                               ; preds = %71
  %73 = load i32, i32* %4, align 4
  %74 = add nsw i32 %73, 1
  store i32 %74, i32* %4, align 4
  br label %59

75:                                               ; preds = %69, %59
  %76 = load i32, i32* %8, align 4
  %77 = icmp eq i32 %76, 100002
  br i1 %77, label %78, label %80

78:                                               ; preds = %75
  %79 = call i32 (i8*, ...) @printf(i8* getelementptr inbounds ([4 x i8], [4 x i8]* @.str.2, i64 0, i64 0))
  br label %87

80:                                               ; preds = %75
  %81 = load i32, i32* %8, align 4
  %82 = sext i32 %81 to i64
  %83 = getelementptr inbounds [100001 x i8], [100001 x i8]* %2, i64 0, i64 %82
  %84 = load i8, i8* %83, align 1
  %85 = sext i8 %84 to i32
  %86 = call i32 (i8*, ...) @printf(i8* getelementptr inbounds ([4 x i8], [4 x i8]* @.str.3, i64 0, i64 0), i32 %85)
  br label %87

87:                                               ; preds = %80, %78
  store i32 100002, i32* %8, align 4
  store i32 0, i32* %4, align 4
  br label %88

88:                                               ; preds = %95, %87
  %89 = load i32, i32* %4, align 4
  %90 = icmp slt i32 %89, 100001
  br i1 %90, label %91, label %98

91:                                               ; preds = %88
  %92 = load i32, i32* %4, align 4
  %93 = sext i32 %92 to i64
  %94 = getelementptr inbounds [100001 x i32], [100001 x i32]* %7, i64 0, i64 %93
  store i32 0, i32* %94, align 4
  br label %95

95:                                               ; preds = %91
  %96 = load i32, i32* %4, align 4
  %97 = add nsw i32 %96, 1
  store i32 %97, i32* %4, align 4
  br label %88

98:                                               ; preds = %88
  br label %99

99:                                               ; preds = %98
  %100 = load i32, i32* %10, align 4
  %101 = add nsw i32 %100, 1
  store i32 %101, i32* %10, align 4
  br label %13

102:                                              ; preds = %13
  %103 = load i32, i32* %1, align 4
  ret i32 %103
}

; Function Attrs: argmemonly nounwind willreturn
declare void @llvm.memset.p0i8.i64(i8* nocapture writeonly, i8, i64, i1 immarg) #1

declare dso_local i32 @__isoc99_scanf(i8*, ...) #2

; Function Attrs: nounwind readonly
declare dso_local i64 @strlen(i8*) #3

declare dso_local i32 @printf(i8*, ...) #2


!llvm.module.flags = !{!0}
!llvm.ident = !{!1}

!0 = !{i32 1, !"wchar_size", i32 4}
!1 = !{!"clang version 10.0.0-4ubuntu1 "}
